target datalayout = "e-m:e-p270:32:32-p271:32:32-p272:64:64-i64:64-i128:128-f80:128-n8:16:32:64-S128"
target triple = "x86_64-pc-linux-gnu"

%struct.AVFilterContext = type { ptr, ptr, ptr, ptr, ptr, i32, ptr, ptr, i32, ptr, ptr, i32, i32, ptr, ptr, ptr, ptr, i32, ptr, i32, i32 }
%struct.ColorizeContext = type { ptr, float, float, float, float, i32, [3 x i32], [4 x i32], [4 x i32], [2 x ptr] }

; Function Attrs: nounwind uwtable
define internal i32 @do_slice(ptr noundef %0, ptr noundef %1, i32 noundef %2, i32 noundef %3) #1 {
  %5 = alloca ptr, align 8
  %6 = alloca ptr, align 8
  %7 = alloca i32, align 4
  %8 = alloca i32, align 4
  %9 = alloca ptr, align 8
  store ptr %0, ptr %5, align 8, !tbaa !23
  store ptr %1, ptr %6, align 8, !tbaa !56
  store i32 %2, ptr %7, align 4, !tbaa !43
  store i32 %3, ptr %8, align 4, !tbaa !43
  call void @llvm.lifetime.start.p0(i64 8, ptr %9) #8
  %10 = load ptr, ptr %5, align 8, !tbaa !23
  %11 = getelementptr inbounds nuw %struct.AVFilterContext, ptr %10, i32 0, i32 9
  %12 = load ptr, ptr %11, align 8, !tbaa !24
  store ptr %12, ptr %9, align 8, !tbaa !34
  %13 = load ptr, ptr %9, align 8, !tbaa !34
  %14 = getelementptr inbounds nuw %struct.ColorizeContext, ptr %13, i32 0, i32 9
  %15 = getelementptr inbounds [2 x ptr], ptr %14, i64 0, i64 0
  %16 = load ptr, ptr %15, align 8, !tbaa !56
  %17 = load ptr, ptr %5, align 8, !tbaa !23
  %18 = load ptr, ptr %6, align 8, !tbaa !56
  %19 = load i32, ptr %7, align 4, !tbaa !43
  %20 = load i32, ptr %8, align 4, !tbaa !43
  %21 = call i32 %16(ptr noundef %17, ptr noundef %18, i32 noundef %19, i32 noundef %20)
  %22 = load ptr, ptr %9, align 8, !tbaa !34
  %23 = getelementptr inbounds nuw %struct.ColorizeContext, ptr %22, i32 0, i32 9
  %24 = getelementptr inbounds [2 x ptr], ptr %23, i64 0, i64 1
  %25 = load ptr, ptr %24, align 8, !tbaa !56
  %26 = load ptr, ptr %5, align 8, !tbaa !23
  %27 = load ptr, ptr %6, align 8, !tbaa !56
  %28 = load i32, ptr %7, align 4, !tbaa !43
  %29 = load i32, ptr %8, align 4, !tbaa !43
  %30 = call i32 %25(ptr noundef %26, ptr noundef %27, i32 noundef %28, i32 noundef %29)
  call void @llvm.lifetime.end.p0(i64 8, ptr %9) #8
  ret i32 0
}