; Function Attrs: nounwind uwtable
define internal noundef i32 @do_slice(ptr noundef %0, ptr noundef %1, i32 noundef %2, i32 noundef %3) #1 {
  %5 = getelementptr inbounds nuw i8, ptr %0, i64 72
  %6 = load ptr, ptr %5, align 8, !tbaa !19
  %7 = getelementptr inbounds nuw i8, ptr %6, i64 72
  %8 = load ptr, ptr %7, align 8, !tbaa !48
  %9 = tail call i32 %8(ptr noundef %0, ptr noundef %1, i32 noundef %2, i32 noundef %3) #8
  %10 = getelementptr inbounds nuw i8, ptr %6, i64 80
  %11 = load ptr, ptr %10, align 8, !tbaa !48
  %12 = tail call i32 %11(ptr noundef %0, ptr noundef %1, i32 noundef %2, i32 noundef %3) #8
  ret i32 0
}